target datalayout = "e-m:e-p270:32:32-p271:32:32-p272:64:64-i64:64-i128:128-f80:128-n8:16:32:64-S128"
target triple = "x86_64-pc-linux-gnu"

%struct._value_string = type { i32, ptr }
%struct.mcpe_handler_entry = type { %struct._value_string, ptr }

@.str.3 = private unnamed_addr constant [15 x i8] c"mcpe.packet.id\00", align 1
@mcpe_packet_names = internal global [4 x %struct._value_string] zeroinitializer, align 16
@proto_register_mcpe.ett = internal global [5 x ptr] [ptr @ett_mcpe, ptr @ett_mcpe_batch, ptr @ett_mcpe_batch_record, ptr @ett_mcpe_login, ptr @ett_mcpe_string], align 16
@.str.42 = private unnamed_addr constant [25 x i8] c"Minecraft Pocket Edition\00", align 1
@.str.43 = private unnamed_addr constant [5 x i8] c"MCPE\00", align 1
@.str.44 = private unnamed_addr constant [5 x i8] c"mcpe\00", align 1
@proto_mcpe = internal global i32 0, align 4
@mcpe_handle = internal global ptr null, align 8
@.str.45 = private unnamed_addr constant [13 x i8] c"MCPE packets\00", align 1
@mcpe_packet_dissectors = internal global ptr null, align 8
@.str.46 = private unnamed_addr constant [9 x i8] c"udp.port\00", align 1
@.str.47 = private unnamed_addr constant [21 x i8] c"MCPE Server UDP Port\00", align 1
@.str.48 = private unnamed_addr constant [37 x i8] c"Set the UDP port for the MCPE Server\00", align 1
@mcpe_udp_port_requested = internal global i32 19132, align 4

; Function Attrs: nounwind null_pointer_is_valid sspstrong uwtable
define internal void @mcpe_init_message_names() #2 {
  %1 = alloca i32, align 4
  call void @llvm.lifetime.start.p0(i64 4, ptr %1) #7
  store i32 0, ptr %1, align 4
  br label %2

2:                                                ; preds = %27, %0
  %3 = load i32, ptr %1, align 4
  %4 = zext i32 %3 to i64
  %5 = icmp ult i64 %4, 3
  br i1 %5, label %6, label %30

6:                                                ; preds = %2
  %7 = load i32, ptr %1, align 4
  %8 = zext i32 %7 to i64
  %9 = getelementptr [3 x %struct.mcpe_handler_entry], ptr @mcpe_packet_handlers, i64 0, i64 %8
  %10 = getelementptr inbounds nuw %struct.mcpe_handler_entry, ptr %9, i32 0, i32 0
  %11 = getelementptr inbounds nuw %struct._value_string, ptr %10, i32 0, i32 0
  %12 = load i32, ptr %11, align 8
  %13 = load i32, ptr %1, align 4
  %14 = zext i32 %13 to i64
  %15 = getelementptr [4 x %struct._value_string], ptr @mcpe_packet_names, i64 0, i64 %14
  %16 = getelementptr inbounds nuw %struct._value_string, ptr %15, i32 0, i32 0
  store i32 %12, ptr %16, align 16
  %17 = load i32, ptr %1, align 4
  %18 = zext i32 %17 to i64
  %19 = getelementptr [3 x %struct.mcpe_handler_entry], ptr @mcpe_packet_handlers, i64 0, i64 %18
  %20 = getelementptr inbounds nuw %struct.mcpe_handler_entry, ptr %19, i32 0, i32 0
  %21 = getelementptr inbounds nuw %struct._value_string, ptr %20, i32 0, i32 1
  %22 = load ptr, ptr %21, align 8
  %23 = load i32, ptr %1, align 4
  %24 = zext i32 %23 to i64
  %25 = getelementptr [4 x %struct._value_string], ptr @mcpe_packet_names, i64 0, i64 %24
  %26 = getelementptr inbounds nuw %struct._value_string, ptr %25, i32 0, i32 1
  store ptr %22, ptr %26, align 8
  br label %27

27:                                               ; preds = %6
  %28 = load i32, ptr %1, align 4
  %29 = add i32 %28, 1
  store i32 %29, ptr %1, align 4
  br label %2, !llvm.loop !6

30:                                               ; preds = %2
  store i32 0, ptr getelementptr ([4 x %struct._value_string], ptr @mcpe_packet_names, i64 0, i64 3), align 16
  store ptr null, ptr getelementptr inbounds nuw (%struct._value_string, ptr getelementptr ([4 x %struct._value_string], ptr @mcpe_packet_names, i64 0, i64 3), i32 0, i32 1), align 8
  call void @llvm.lifetime.end.p0(i64 4, ptr %1) #7
  ret void
}

; Function Attrs: null_pointer_is_valid sspstrong uwtable
define hidden void @proto_register_mcpe() #0 {
  %1 = alloca ptr, align 8
  %2 = alloca ptr, align 8
  call void @llvm.lifetime.start.p0(i64 8, ptr %1) #7
  call void @llvm.lifetime.start.p0(i64 8, ptr %2) #7
  call void @mcpe_init_message_names()
  %3 = call i32 @proto_register_protocol(ptr noundef @.str.42, ptr noundef @.str.43, ptr noundef @.str.44)
  store i32 %3, ptr @proto_mcpe, align 4
  %4 = load i32, ptr @proto_mcpe, align 4
  %5 = call ptr @expert_register_protocol(i32 noundef %4)
  store ptr %5, ptr %2, align 8
  %6 = load ptr, ptr %2, align 8
  call void @expert_register_field_array(ptr noundef %6, ptr noundef @proto_register_mcpe.ei, i32 noundef 3)
  %7 = load i32, ptr @proto_mcpe, align 4
  call void @proto_register_field_array(i32 noundef %7, ptr noundef @proto_register_mcpe.hf, i32 noundef 18)
  call void @proto_register_subtree_array(ptr noundef @proto_register_mcpe.ett, i32 noundef 5)
  %8 = load i32, ptr @proto_mcpe, align 4
  %9 = call ptr @register_dissector(ptr noundef @.str.44, ptr noundef @dissect_mcpe, i32 noundef %8)
  store ptr %9, ptr @mcpe_handle, align 8
  %10 = load i32, ptr @proto_mcpe, align 4
  %11 = call ptr @register_dissector_table(ptr noundef @.str.3, ptr noundef @.str.45, i32 noundef %10, i32 noundef 4, i32 noundef 2)
  store ptr %11, ptr @mcpe_packet_dissectors, align 8
  %12 = load i32, ptr @proto_mcpe, align 4
  %13 = call ptr @prefs_register_protocol(i32 noundef %12, ptr noundef @proto_reg_handoff_mcpe)
  store ptr %13, ptr %1, align 8
  %14 = load ptr, ptr %1, align 8
  call void @prefs_register_uint_preference(ptr noundef %14, ptr noundef @.str.46, ptr noundef @.str.47, ptr noundef @.str.48, i32 noundef 10, ptr noundef @mcpe_udp_port_requested)
  call void @llvm.lifetime.end.p0(i64 8, ptr %2) #7
  call void @llvm.lifetime.end.p0(i64 8, ptr %1) #7
  ret void
}