; Function Attrs: null_pointer_is_valid sspstrong uwtable
define hidden void @proto_register_mcpe() local_unnamed_addr #0 {
  br label %1

1:                                                ; preds = %1, %0
  %indvars.iv.i = phi i64 [ 0, %0 ], [ %indvars.iv.next.i, %1 ]
  %2 = getelementptr [3 x %struct.mcpe_handler_entry], ptr @mcpe_packet_handlers, i64 0, i64 %indvars.iv.i
  %3 = load i32, ptr %2, align 8
  %4 = getelementptr [4 x %struct._value_string], ptr @mcpe_packet_names, i64 0, i64 %indvars.iv.i
  store i32 %3, ptr %4, align 16
  %5 = getelementptr inbounds nuw i8, ptr %2, i64 8
  %6 = load ptr, ptr %5, align 8
  %7 = getelementptr inbounds nuw i8, ptr %4, i64 8
  store ptr %6, ptr %7, align 8
  %indvars.iv.next.i = add nuw nsw i64 %indvars.iv.i, 1
  %exitcond.not.i = icmp eq i64 %indvars.iv.next.i, 3
  br i1 %exitcond.not.i, label %mcpe_init_message_names.exit, label %1, !llvm.loop !6

mcpe_init_message_names.exit:                     ; preds = %1
  store i32 0, ptr getelementptr inbounds nuw (i8, ptr @mcpe_packet_names, i64 48), align 16
  store ptr null, ptr getelementptr inbounds nuw (i8, ptr @mcpe_packet_names, i64 56), align 8
  %8 = tail call i32 @proto_register_protocol(ptr noundef nonnull @.str.42, ptr noundef nonnull @.str.43, ptr noundef nonnull @.str.44)
  store i32 %8, ptr @proto_mcpe, align 4
  %9 = tail call ptr @expert_register_protocol(i32 noundef %8)
  tail call void @expert_register_field_array(ptr noundef %9, ptr noundef nonnull @proto_register_mcpe.ei, i32 noundef 3)
  %10 = load i32, ptr @proto_mcpe, align 4
  tail call void @proto_register_field_array(i32 noundef %10, ptr noundef nonnull @proto_register_mcpe.hf, i32 noundef 18)
  tail call void @proto_register_subtree_array(ptr noundef nonnull @proto_register_mcpe.ett, i32 noundef 5)
  %11 = load i32, ptr @proto_mcpe, align 4
  %12 = tail call ptr @register_dissector(ptr noundef nonnull @.str.44, ptr noundef nonnull @dissect_mcpe, i32 noundef %11)
  store ptr %12, ptr @mcpe_handle, align 8
  %13 = load i32, ptr @proto_mcpe, align 4
  %14 = tail call ptr @register_dissector_table(ptr noundef nonnull @.str.3, ptr noundef nonnull @.str.45, i32 noundef %13, i32 noundef 4, i32 noundef 2)
  store ptr %14, ptr @mcpe_packet_dissectors, align 8
  %15 = load i32, ptr @proto_mcpe, align 4
  %16 = tail call ptr @prefs_register_protocol(i32 noundef %15, ptr noundef nonnull @proto_reg_handoff_mcpe)
  tail call void @prefs_register_uint_preference(ptr noundef %16, ptr noundef nonnull @.str.46, ptr noundef nonnull @.str.47, ptr noundef nonnull @.str.48, i32 noundef 10, ptr noundef nonnull @mcpe_udp_port_requested)
  ret void
}